; ModuleID = 'bench/ffmpeg/original/alacdsp.ll'
source_filename = "bench/ffmpeg/original/alacdsp.ll"
target datalayout = "e-m:e-p270:32:32-p271:32:32-p272:64:64-i64:64-i128:128-f80:128-n8:16:32:64-S128"
target triple = "x86_64-pc-linux-gnu"

; Function Attrs: cold mustprogress nofree norecurse nosync nounwind optsize willreturn memory(argmem: write) uwtable
define void @ff_alacdsp_init(ptr noundef writeonly captures(none) initializes((0, 24)) %0) local_unnamed_addr #0 {
  store ptr @decorrelate_stereo, ptr %0, align 8, !tbaa !4
  %2 = getelementptr inbounds nuw i8, ptr %0, i64 8
  %3 = getelementptr inbounds nuw i8, ptr %0, i64 16
  store ptr @append_extra_bits, ptr %3, align 8, !tbaa !9
  store ptr @append_extra_bits, ptr %2, align 8, !tbaa !9
  ret void
}

; Function Attrs: nofree norecurse nosync nounwind memory(readwrite, inaccessiblemem: none) uwtable
define internal void @decorrelate_stereo(ptr noundef readonly captures(none) %0, i32 noundef %1, i32 noundef %2, i32 noundef %3) #1 {
  %5 = icmp sgt i32 %1, 0
  br i1 %5, label %.lr.ph, label %._crit_edge

.lr.ph:                                           ; preds = %4
  %6 = load ptr, ptr %0, align 8, !tbaa !10
  %7 = getelementptr inbounds nuw i8, ptr %0, i64 8
  %8 = load ptr, ptr %7, align 8, !tbaa !10
  %wide.trip.count = zext nneg i32 %1 to i64
  br label %9

9:                                                ; preds = %.lr.ph, %9
  %indvars.iv = phi i64 [ 0, %.lr.ph ], [ %indvars.iv.next, %9 ]
  %10 = getelementptr inbounds nuw i32, ptr %6, i64 %indvars.iv
  %11 = load i32, ptr %10, align 4, !tbaa !12
  %12 = getelementptr inbounds nuw i32, ptr %8, i64 %indvars.iv
  %13 = load i32, ptr %12, align 4, !tbaa !12
  %14 = mul i32 %13, %3
  %15 = ashr i32 %14, %2
  %16 = sub i32 %11, %15
  %17 = add i32 %16, %13
  store i32 %17, ptr %10, align 4, !tbaa !12
  store i32 %16, ptr %12, align 4, !tbaa !12
  %indvars.iv.next = add nuw nsw i64 %indvars.iv, 1
  %exitcond.not = icmp eq i64 %indvars.iv.next, %wide.trip.count
  br i1 %exitcond.not, label %._crit_edge, label %9, !llvm.loop !14

._crit_edge:                                      ; preds = %9, %4
  ret void
}

; Function Attrs: nofree norecurse nosync nounwind memory(readwrite, inaccessiblemem: none) uwtable
define internal void @append_extra_bits(ptr noundef readonly captures(none) %0, ptr noundef readonly captures(none) %1, i32 noundef %2, i32 noundef %3, i32 noundef %4) #1 {
  %6 = icmp sgt i32 %3, 0
  %7 = icmp sgt i32 %4, 0
  %or.cond = and i1 %6, %7
  br i1 %or.cond, label %.preheader.us.preheader, label %._crit_edge18

.preheader.us.preheader:                          ; preds = %5
  %wide.trip.count24 = zext nneg i32 %3 to i64
  %wide.trip.count = zext nneg i32 %4 to i64
  br label %.preheader.us

.preheader.us:                                    ; preds = %.preheader.us.preheader, %._crit_edge.us
  %indvars.iv21 = phi i64 [ 0, %.preheader.us.preheader ], [ %indvars.iv.next22, %._crit_edge.us ]
  %8 = getelementptr inbounds nuw ptr, ptr %0, i64 %indvars.iv21
  %9 = load ptr, ptr %8, align 8, !tbaa !10
  %10 = getelementptr inbounds nuw ptr, ptr %1, i64 %indvars.iv21
  %11 = load ptr, ptr %10, align 8, !tbaa !10
  br label %12

12:                                               ; preds = %.preheader.us, %12
  %indvars.iv = phi i64 [ 0, %.preheader.us ], [ %indvars.iv.next, %12 ]
  %13 = getelementptr inbounds nuw i32, ptr %9, i64 %indvars.iv
  %14 = load i32, ptr %13, align 4, !tbaa !12
  %15 = shl i32 %14, %2
  %16 = getelementptr inbounds nuw i32, ptr %11, i64 %indvars.iv
  %17 = load i32, ptr %16, align 4, !tbaa !12
  %18 = or i32 %17, %15
  store i32 %18, ptr %13, align 4, !tbaa !12
  %indvars.iv.next = add nuw nsw i64 %indvars.iv, 1
  %exitcond.not = icmp eq i64 %indvars.iv.next, %wide.trip.count
  br i1 %exitcond.not, label %._crit_edge.us, label %12, !llvm.loop !16

._crit_edge.us:                                   ; preds = %12
  %indvars.iv.next22 = add nuw nsw i64 %indvars.iv21, 1
  %exitcond25.not = icmp eq i64 %indvars.iv.next22, %wide.trip.count24
  br i1 %exitcond25.not, label %._crit_edge18, label %.preheader.us, !llvm.loop !17

._crit_edge18:                                    ; preds = %._crit_edge.us, %5
  ret void
}


!llvm.module.flags = !{!0, !1, !2, !3}

!0 = !{i32 1, !"wchar_size", i32 4}
!1 = !{i32 8, !"PIC Level", i32 2}
!2 = !{i32 7, !"uwtable", i32 2}
!3 = !{i32 1, !"override-stack-alignment", i32 16}
!4 = !{!5, !6, i64 0}
!5 = !{!"ALACDSPContext", !6, i64 0, !7, i64 8}
!6 = !{!"any pointer", !7, i64 0}
!7 = !{!"omnipotent char", !8, i64 0}
!8 = !{!"Simple C/C++ TBAA"}
!9 = !{!6, !6, i64 0}
!10 = !{!11, !11, i64 0}
!11 = !{!"p1 int", !6, i64 0}
!12 = !{!13, !13, i64 0}
!13 = !{!"int", !7, i64 0}
!14 = distinct !{!14, !15}
!15 = !{!"llvm.loop.mustprogress"}
!16 = distinct !{!16, !15}
!17 = distinct !{!17, !15}
